target datalayout = "e-m:e-p270:32:32-p271:32:32-p272:64:64-i64:64-i128:128-f80:128-n8:16:32:64-S128"
target triple = "x86_64-pc-linux-gnu"

%struct.expert_field = type { i32, i32 }

@ei_reload_truncated_field = internal global %struct.expert_field zeroinitializer, align 4
@.str.17 = private unnamed_addr constant [14 x i8] c": %d elements\00", align 1
@hf_reload_length_uint8 = internal global i32 0, align 4
@hf_reload_probereq = internal global i32 0, align 4
@hf_reload_probereq_requested_info = internal global i32 0, align 4
@hf_reload_probe_information_type = internal global i32 0, align 4
@ett_reload_probereq = internal global i32 0, align 4
@ett_reload_probereq_requested_info = internal global i32 0, align 4
@.str.651 = private unnamed_addr constant [28 x i8] c" (ProbeInformationType<%d>)\00", align 1
@.str.652 = private unnamed_addr constant [25 x i8] c"Truncated requested_info\00", align 1

; Function Attrs: null_pointer_is_valid sspstrong uwtable
define internal i32 @dissect_probereq(ptr noundef %0, ptr noundef %1, ptr noundef %2, i16 noundef zeroext %3, i16 noundef zeroext %4) #0 {
  %6 = alloca ptr, align 8
  %7 = alloca ptr, align 8
  %8 = alloca ptr, align 8
  %9 = alloca i16, align 2
  %10 = alloca i16, align 2
  %11 = alloca ptr, align 8
  %12 = alloca ptr, align 8
  %13 = alloca ptr, align 8
  %14 = alloca ptr, align 8
  %15 = alloca i8, align 1
  %16 = alloca i32, align 4
  %17 = alloca i32, align 4
  store ptr %0, ptr %6, align 8
  store ptr %1, ptr %7, align 8
  store ptr %2, ptr %8, align 8
  store i16 %3, ptr %9, align 2
  store i16 %4, ptr %10, align 2
  call void @llvm.lifetime.start.p0(i64 8, ptr %11) #8
  call void @llvm.lifetime.start.p0(i64 8, ptr %12) #8
  call void @llvm.lifetime.start.p0(i64 8, ptr %13) #8
  call void @llvm.lifetime.start.p0(i64 8, ptr %14) #8
  call void @llvm.lifetime.start.p0(i64 1, ptr %15) #8
  store i8 0, ptr %15, align 1
  %18 = load ptr, ptr %8, align 8
  %19 = load i32, ptr @hf_reload_probereq, align 4
  %20 = load ptr, ptr %6, align 8
  %21 = load i16, ptr %9, align 2
  %22 = zext i16 %21 to i32
  %23 = load i16, ptr %10, align 2
  %24 = zext i16 %23 to i32
  %25 = call ptr @proto_tree_add_item(ptr noundef %18, i32 noundef %19, ptr noundef %20, i32 noundef %22, i32 noundef %24, i32 noundef 0)
  store ptr %25, ptr %11, align 8
  %26 = load ptr, ptr %11, align 8
  %27 = load i32, ptr @ett_reload_probereq, align 4
  %28 = call ptr @proto_item_add_subtree(ptr noundef %26, i32 noundef %27)
  store ptr %28, ptr %13, align 8
  %29 = load ptr, ptr %13, align 8
  %30 = load i32, ptr @hf_reload_probereq_requested_info, align 4
  %31 = load ptr, ptr %6, align 8
  %32 = load i16, ptr %9, align 2
  %33 = zext i16 %32 to i32
  %34 = load i16, ptr %10, align 2
  %35 = zext i16 %34 to i32
  %36 = call ptr @proto_tree_add_item(ptr noundef %29, i32 noundef %30, ptr noundef %31, i32 noundef %33, i32 noundef %35, i32 noundef 0)
  store ptr %36, ptr %12, align 8
  %37 = load ptr, ptr %12, align 8
  %38 = load i32, ptr @ett_reload_probereq_requested_info, align 4
  %39 = call ptr @proto_item_add_subtree(ptr noundef %37, i32 noundef %38)
  store ptr %39, ptr %14, align 8
  %40 = load ptr, ptr %6, align 8
  %41 = load i16, ptr %9, align 2
  %42 = zext i16 %41 to i32
  %43 = call zeroext i8 @tvb_get_uint8(ptr noundef %40, i32 noundef %42)
  store i8 %43, ptr %15, align 1
  %44 = load ptr, ptr %12, align 8
  %45 = load i8, ptr %15, align 1
  %46 = zext i8 %45 to i32
  call void (ptr, ptr, ...) @proto_item_append_text(ptr noundef %44, ptr noundef @.str.651, i32 noundef %46)
  %47 = load ptr, ptr %14, align 8
  %48 = load i32, ptr @hf_reload_length_uint8, align 4
  %49 = load ptr, ptr %6, align 8
  %50 = load i16, ptr %9, align 2
  %51 = zext i16 %50 to i32
  %52 = load i8, ptr %15, align 1
  %53 = zext i8 %52 to i32
  %54 = call ptr @proto_tree_add_uint(ptr noundef %47, i32 noundef %48, ptr noundef %49, i32 noundef %51, i32 noundef 1, i32 noundef %53)
  %55 = load i8, ptr %15, align 1
  %56 = zext i8 %55 to i32
  %57 = add i32 %56, 1
  %58 = load i16, ptr %10, align 2
  %59 = zext i16 %58 to i32
  %60 = icmp sgt i32 %57, %59
  br i1 %60, label %61, label %69

61:                                               ; preds = %5
  %62 = load ptr, ptr %7, align 8
  %63 = load ptr, ptr %12, align 8
  %64 = call ptr (ptr, ptr, ptr, ptr, ...) @expert_add_info_format(ptr noundef %62, ptr noundef %63, ptr noundef @ei_reload_truncated_field, ptr noundef @.str.652)
  %65 = load i16, ptr %10, align 2
  %66 = zext i16 %65 to i32
  %67 = sub i32 %66, 1
  %68 = trunc i32 %67 to i8
  store i8 %68, ptr %15, align 1
  br label %69

69:                                               ; preds = %61, %5
  call void @llvm.lifetime.start.p0(i64 4, ptr %16) #8
  store i32 0, ptr %16, align 4
  call void @llvm.lifetime.start.p0(i64 4, ptr %17) #8
  store i32 0, ptr %17, align 4
  br label %70

70:                                               ; preds = %80, %69
  %71 = load i32, ptr %16, align 4
  %72 = icmp sge i32 %71, 0
  br i1 %72, label %73, label %78

73:                                               ; preds = %70
  %74 = load i32, ptr %16, align 4
  %75 = load i8, ptr %15, align 1
  %76 = zext i8 %75 to i32
  %77 = icmp slt i32 %74, %76
  br label %78

78:                                               ; preds = %73, %70
  %79 = phi i1 [ false, %70 ], [ %77, %73 ]
  br i1 %79, label %80, label %94

80:                                               ; preds = %78
  %81 = load ptr, ptr %14, align 8
  %82 = load i32, ptr @hf_reload_probe_information_type, align 4
  %83 = load ptr, ptr %6, align 8
  %84 = load i16, ptr %9, align 2
  %85 = zext i16 %84 to i32
  %86 = add i32 %85, 1
  %87 = load i32, ptr %16, align 4
  %88 = add i32 %86, %87
  %89 = call ptr @proto_tree_add_item(ptr noundef %81, i32 noundef %82, ptr noundef %83, i32 noundef %88, i32 noundef 1, i32 noundef 0)
  %90 = load i32, ptr %16, align 4
  %91 = add i32 %90, 1
  store i32 %91, ptr %16, align 4
  %92 = load i32, ptr %17, align 4
  %93 = add i32 %92, 1
  store i32 %93, ptr %17, align 4
  br label %70, !llvm.loop !9

94:                                               ; preds = %78
  %95 = load ptr, ptr %12, align 8
  %96 = load i32, ptr %17, align 4
  call void (ptr, ptr, ...) @proto_item_append_text(ptr noundef %95, ptr noundef @.str.17, i32 noundef %96)
  call void @llvm.lifetime.end.p0(i64 4, ptr %17) #8
  call void @llvm.lifetime.end.p0(i64 4, ptr %16) #8
  %97 = load i8, ptr %15, align 1
  %98 = zext i8 %97 to i32
  call void @llvm.lifetime.end.p0(i64 1, ptr %15) #8
  call void @llvm.lifetime.end.p0(i64 8, ptr %14) #8
  call void @llvm.lifetime.end.p0(i64 8, ptr %13) #8
  call void @llvm.lifetime.end.p0(i64 8, ptr %12) #8
  call void @llvm.lifetime.end.p0(i64 8, ptr %11) #8
  ret i32 %98
}