; Function Attrs: null_pointer_is_valid sspstrong uwtable
define internal fastcc void @dissect_probereq(ptr noundef %0, ptr noundef %1, ptr noundef %2, i16 noundef zeroext %3, i16 noundef zeroext %4) unnamed_addr #0 {
  %6 = load i32, ptr @hf_reload_probereq, align 4
  %7 = zext i16 %3 to i32
  %8 = zext i16 %4 to i32
  %9 = tail call ptr @proto_tree_add_item(ptr noundef %2, i32 noundef %6, ptr noundef %0, i32 noundef %7, i32 noundef %8, i32 noundef 0)
  %10 = load i32, ptr @ett_reload_probereq, align 4
  %11 = tail call ptr @proto_item_add_subtree(ptr noundef %9, i32 noundef %10)
  %12 = load i32, ptr @hf_reload_probereq_requested_info, align 4
  %13 = tail call ptr @proto_tree_add_item(ptr noundef %11, i32 noundef %12, ptr noundef %0, i32 noundef %7, i32 noundef %8, i32 noundef 0)
  %14 = load i32, ptr @ett_reload_probereq_requested_info, align 4
  %15 = tail call ptr @proto_item_add_subtree(ptr noundef %13, i32 noundef %14)
  %16 = tail call zeroext i8 @tvb_get_uint8(ptr noundef %0, i32 noundef %7)
  %17 = zext i8 %16 to i32
  tail call void (ptr, ptr, ...) @proto_item_append_text(ptr noundef %13, ptr noundef nonnull @.str.651, i32 noundef %17)
  %18 = load i32, ptr @hf_reload_length_uint8, align 4
  %19 = tail call ptr @proto_tree_add_uint(ptr noundef %15, i32 noundef %18, ptr noundef %0, i32 noundef %7, i32 noundef 1, i32 noundef %17)
  %.not = icmp samesign ult i32 %17, %8
  br i1 %.not, label %24, label %20

20:                                               ; preds = %5
  %21 = tail call ptr (ptr, ptr, ptr, ptr, ...) @expert_add_info_format(ptr noundef %1, ptr noundef %13, ptr noundef nonnull @ei_reload_truncated_field, ptr noundef nonnull @.str.652)
  %22 = trunc i16 %4 to i8
  %23 = add i8 %22, -1
  %.pre = zext i8 %23 to i32
  br label %24

24:                                               ; preds = %20, %5
  %.pre-phi = phi i32 [ %.pre, %20 ], [ %17, %5 ]
  %.035 = phi i8 [ %23, %20 ], [ %16, %5 ]
  %.not40 = icmp eq i8 %.035, 0
  br i1 %.not40, label %._crit_edge, label %.lr.ph

.lr.ph:                                           ; preds = %24
  %25 = add nuw nsw i32 %7, 1
  br label %26

26:                                               ; preds = %.lr.ph, %26
  %.038 = phi i32 [ 0, %.lr.ph ], [ %30, %26 ]
  %27 = load i32, ptr @hf_reload_probe_information_type, align 4
  %28 = add nuw nsw i32 %25, %.038
  %29 = tail call ptr @proto_tree_add_item(ptr noundef %15, i32 noundef %27, ptr noundef %0, i32 noundef %28, i32 noundef 1, i32 noundef 0)
  %30 = add nuw nsw i32 %.038, 1
  %exitcond.not = icmp eq i32 %30, %.pre-phi
  br i1 %exitcond.not, label %._crit_edge, label %26, !llvm.loop !6

._crit_edge:                                      ; preds = %26, %24
  %.0.lcssa = phi i32 [ 0, %24 ], [ %.pre-phi, %26 ]
  tail call void (ptr, ptr, ...) @proto_item_append_text(ptr noundef %13, ptr noundef nonnull @.str.17, i32 noundef %.0.lcssa)
  ret void
}